; Function Attrs: mustprogress uwtable
define internal noalias noundef nonnull ptr @_ZN7doctest6detail15reporterCreatorINS_12_GLOBAL__N_115ConsoleReporterEEEPNS_9IReporterERKNS_14ContextOptionsE(ptr noundef nonnull align 8 dereferenceable(135) %0) #8 personality ptr @__gxx_personality_v0 {
  %2 = tail call noalias noundef nonnull dereferenceable(112) ptr @_Znwm(i64 noundef 112) #51
  store ptr getelementptr inbounds nuw inrange(-16, 120) (i8, ptr @_ZTVN7doctest12_GLOBAL__N_115ConsoleReporterE, i64 16), ptr %2, align 8, !tbaa !31
  %3 = getelementptr inbounds nuw i8, ptr %2, i64 8
  %4 = load ptr, ptr %0, align 8, !tbaa !319
  store ptr %4, ptr %3, align 8, !tbaa !467
  %5 = getelementptr inbounds nuw i8, ptr %2, i64 24
  tail call void @llvm.memset.p0.i64(ptr noundef nonnull align 8 dereferenceable(24) %5, i8 0, i64 24, i1 false)
  %6 = getelementptr inbounds nuw i8, ptr %2, i64 56
  tail call void @llvm.memset.p0.i64(ptr noundef nonnull align 8 dereferenceable(40) %6, i8 0, i64 40, i1 false)
  %7 = getelementptr inbounds nuw i8, ptr %2, i64 96
  store ptr %0, ptr %7, align 8, !tbaa !468
  ret ptr %2
}